target datalayout = "e-m:e-p270:32:32-p271:32:32-p272:64:64-i64:64-i128:128-f80:128-n8:16:32:64-S128"
target triple = "x86_64-pc-linux-gnu"

%struct.FLAC__StreamMetadata_CueSheet_Track = type { i64, i8, [13 x i8], i8, i8, ptr }

; Function Attrs: nounwind sspstrong uwtable
define hidden void @FLAC__metadata_object_cuesheet_track_delete_data(ptr noundef %0) #0 {
  %2 = alloca ptr, align 8
  store ptr %0, ptr %2, align 8, !tbaa !27
  %3 = load ptr, ptr %2, align 8, !tbaa !27
  %4 = getelementptr inbounds nuw %struct.FLAC__StreamMetadata_CueSheet_Track, ptr %3, i32 0, i32 5
  %5 = load ptr, ptr %4, align 8, !tbaa !33
  %6 = icmp ne ptr %5, null
  br i1 %6, label %7, label %11

7:                                                ; preds = %1
  %8 = load ptr, ptr %2, align 8, !tbaa !27
  %9 = getelementptr inbounds nuw %struct.FLAC__StreamMetadata_CueSheet_Track, ptr %8, i32 0, i32 5
  %10 = load ptr, ptr %9, align 8, !tbaa !33
  call void @free(ptr noundef %10) #12
  br label %11

11:                                               ; preds = %7, %1
  ret void
}

; Function Attrs: alwaysinline nounwind
define internal ptr @memcpy.inline(ptr noalias nonnull %0, ptr noalias nonnull %1, i64 %2) #5 {
  %4 = alloca ptr, align 8
  %5 = alloca ptr, align 8
  %6 = alloca i64, align 8
  store ptr %0, ptr %4, align 8, !tbaa !27
  store ptr %1, ptr %5, align 8, !tbaa !27
  store i64 %2, ptr %6, align 8, !tbaa !28
  %7 = load ptr, ptr %4, align 8, !tbaa !27
  %8 = load ptr, ptr %5, align 8, !tbaa !27
  %9 = load i64, ptr %6, align 8, !tbaa !28
  %10 = load ptr, ptr %4, align 8, !tbaa !27
  %11 = call i64 @llvm.objectsize.i64.p0(ptr %10, i1 false, i1 true, i1 false)
  %12 = call ptr @__memcpy_chk(ptr noundef %7, ptr noundef %8, i64 noundef %9, i64 noundef %11) #12
  ret ptr %12
}

; Function Attrs: nounwind sspstrong uwtable
define void @FLAC__metadata_object_cuesheet_track_delete(ptr noundef %0) #0 {
  %2 = alloca ptr, align 8
  store ptr %0, ptr %2, align 8, !tbaa !27
  %3 = load ptr, ptr %2, align 8, !tbaa !27
  call void @FLAC__metadata_object_cuesheet_track_delete_data(ptr noundef %3)
  %4 = load ptr, ptr %2, align 8, !tbaa !27
  call void @free(ptr noundef %4) #12
  ret void
}

; Function Attrs: nounwind sspstrong uwtable
define internal i32 @copy_track_(ptr noundef %0, ptr noundef %1) #0 {
  %3 = alloca i32, align 4
  %4 = alloca ptr, align 8
  %5 = alloca ptr, align 8
  %6 = alloca ptr, align 8
  %7 = alloca i32, align 4
  store ptr %0, ptr %4, align 8, !tbaa !27
  store ptr %1, ptr %5, align 8, !tbaa !27
  %8 = load ptr, ptr %4, align 8, !tbaa !27
  %9 = load ptr, ptr %5, align 8, !tbaa !27
  %10 = call ptr @memcpy.inline(ptr noundef %8, ptr noundef %9, i64 noundef 32) #12
  %11 = load ptr, ptr %5, align 8, !tbaa !27
  %12 = getelementptr inbounds nuw %struct.FLAC__StreamMetadata_CueSheet_Track, ptr %11, i32 0, i32 5
  %13 = load ptr, ptr %12, align 8, !tbaa !33
  %14 = icmp eq ptr %13, null
  br i1 %14, label %15, label %16

15:                                               ; preds = %2
  br label %41

16:                                               ; preds = %2
  call void @llvm.lifetime.start.p0(i64 8, ptr %6) #12
  %17 = load ptr, ptr %5, align 8, !tbaa !27
  %18 = getelementptr inbounds nuw %struct.FLAC__StreamMetadata_CueSheet_Track, ptr %17, i32 0, i32 4
  %19 = load i8, ptr %18, align 1, !tbaa !23
  %20 = zext i8 %19 to i64
  %21 = call ptr @safe_malloc_mul_2op_p(i64 noundef %20, i64 noundef 16)
  store ptr %21, ptr %6, align 8, !tbaa !27
  %22 = icmp eq ptr %21, null
  br i1 %22, label %23, label %24

23:                                               ; preds = %16
  store i32 0, ptr %3, align 4
  store i32 1, ptr %7, align 4
  br label %38

24:                                               ; preds = %16
  %25 = load ptr, ptr %6, align 8, !tbaa !27
  %26 = load ptr, ptr %5, align 8, !tbaa !27
  %27 = getelementptr inbounds nuw %struct.FLAC__StreamMetadata_CueSheet_Track, ptr %26, i32 0, i32 5
  %28 = load ptr, ptr %27, align 8, !tbaa !33
  %29 = load ptr, ptr %5, align 8, !tbaa !27
  %30 = getelementptr inbounds nuw %struct.FLAC__StreamMetadata_CueSheet_Track, ptr %29, i32 0, i32 4
  %31 = load i8, ptr %30, align 1, !tbaa !23
  %32 = zext i8 %31 to i64
  %33 = mul i64 %32, 16
  %34 = call ptr @memcpy.inline(ptr noundef %25, ptr noundef %28, i64 noundef %33) #12
  %35 = load ptr, ptr %6, align 8, !tbaa !27
  %36 = load ptr, ptr %4, align 8, !tbaa !27
  %37 = getelementptr inbounds nuw %struct.FLAC__StreamMetadata_CueSheet_Track, ptr %36, i32 0, i32 5
  store ptr %35, ptr %37, align 8, !tbaa !33
  store i32 0, ptr %7, align 4
  br label %38

38:                                               ; preds = %24, %23
  call void @llvm.lifetime.end.p0(i64 8, ptr %6) #12
  %39 = load i32, ptr %7, align 4
  switch i32 %39, label %44 [
    i32 0, label %40
    i32 1, label %42
  ]

40:                                               ; preds = %38
  br label %41

41:                                               ; preds = %40, %15
  store i32 1, ptr %3, align 4
  br label %42

42:                                               ; preds = %41, %38
  %43 = load i32, ptr %3, align 4
  ret i32 %43

44:                                               ; preds = %38
  unreachable
}

; Function Attrs: nounwind sspstrong uwtable
define ptr @FLAC__metadata_object_cuesheet_track_new() #0 {
  %1 = call noalias ptr @calloc(i64 noundef 1, i64 noundef 32) #13
  ret ptr %1
}

; Function Attrs: nounwind sspstrong uwtable
define ptr @FLAC__metadata_object_cuesheet_track_clone(ptr noundef %0) #0 {
  %2 = alloca ptr, align 8
  %3 = alloca ptr, align 8
  %4 = alloca ptr, align 8
  %5 = alloca i32, align 4
  store ptr %0, ptr %3, align 8, !tbaa !27
  call void @llvm.lifetime.start.p0(i64 8, ptr %4) #12
  %6 = call ptr @FLAC__metadata_object_cuesheet_track_new()
  store ptr %6, ptr %4, align 8, !tbaa !27
  %7 = icmp ne ptr %6, null
  br i1 %7, label %8, label %16

8:                                                ; preds = %1
  %9 = load ptr, ptr %4, align 8, !tbaa !27
  %10 = load ptr, ptr %3, align 8, !tbaa !27
  %11 = call i32 @copy_track_(ptr noundef %9, ptr noundef %10)
  %12 = icmp ne i32 %11, 0
  br i1 %12, label %15, label %13

13:                                               ; preds = %8
  %14 = load ptr, ptr %4, align 8, !tbaa !27
  call void @FLAC__metadata_object_cuesheet_track_delete(ptr noundef %14)
  store ptr null, ptr %2, align 8
  store i32 1, ptr %5, align 4
  br label %18

15:                                               ; preds = %8
  br label %16

16:                                               ; preds = %15, %1
  %17 = load ptr, ptr %4, align 8, !tbaa !27
  store ptr %17, ptr %2, align 8
  store i32 1, ptr %5, align 4
  br label %18

18:                                               ; preds = %16, %13
  call void @llvm.lifetime.end.p0(i64 8, ptr %4) #12
  %19 = load ptr, ptr %2, align 8
  ret ptr %19
}