; Function Attrs: nounwind sspstrong uwtable
define noalias noundef ptr @FLAC__metadata_object_cuesheet_track_clone(ptr noundef readonly captures(none) %0) local_unnamed_addr #0 {
  %2 = tail call noalias noundef dereferenceable_or_null(32) ptr @calloc(i64 noundef 1, i64 noundef 32) #28
  %.not = icmp eq ptr %2, null
  br i1 %.not, label %copy_track_.exit.thread, label %3

3:                                                ; preds = %1
  tail call void @llvm.memcpy.p0.p0.i64(ptr noundef nonnull align 1 dereferenceable(32) %2, ptr noundef nonnull readonly align 1 dereferenceable(32) %0, i64 noundef 32, i1 noundef false) #31
  %4 = getelementptr inbounds nuw i8, ptr %0, i64 24
  %5 = load ptr, ptr %4, align 8, !tbaa !21
  %6 = icmp eq ptr %5, null
  br i1 %6, label %copy_track_.exit.thread, label %7

7:                                                ; preds = %3
  %8 = getelementptr inbounds nuw i8, ptr %0, i64 23
  %9 = load i8, ptr %8, align 1, !tbaa !24
  %10 = zext i8 %9 to i64
  %11 = tail call ptr @safe_malloc_mul_2op_p(i64 noundef %10, i64 noundef 16) #31
  %12 = icmp eq ptr %11, null
  br i1 %12, label %copy_track_.exit, label %.thread.i

.thread.i:                                        ; preds = %7
  %13 = load ptr, ptr %4, align 8, !tbaa !21
  %14 = load i8, ptr %8, align 1, !tbaa !24
  %15 = zext i8 %14 to i64
  %16 = shl nuw nsw i64 %15, 4
  tail call void @llvm.memcpy.p0.p0.i64(ptr noundef nonnull align 1 %11, ptr noundef nonnull align 1 %13, i64 noundef %16, i1 noundef false) #31
  %17 = getelementptr inbounds nuw i8, ptr %2, i64 24
  store ptr %11, ptr %17, align 8, !tbaa !21
  br label %copy_track_.exit.thread

copy_track_.exit:                                 ; preds = %7
  %18 = getelementptr inbounds nuw i8, ptr %2, i64 24
  %19 = load ptr, ptr %18, align 8, !tbaa !21
  %.not.i.i = icmp eq ptr %19, null
  br i1 %.not.i.i, label %FLAC__metadata_object_cuesheet_track_delete.exit, label %20

20:                                               ; preds = %copy_track_.exit
  tail call void @free(ptr noundef nonnull %19) #31
  br label %FLAC__metadata_object_cuesheet_track_delete.exit

FLAC__metadata_object_cuesheet_track_delete.exit: ; preds = %copy_track_.exit, %20
  tail call void @free(ptr noundef nonnull %2) #31
  br label %copy_track_.exit.thread

copy_track_.exit.thread:                          ; preds = %3, %.thread.i, %1, %FLAC__metadata_object_cuesheet_track_delete.exit
  %.0 = phi ptr [ null, %FLAC__metadata_object_cuesheet_track_delete.exit ], [ null, %1 ], [ %2, %.thread.i ], [ %2, %3 ]
  ret ptr %.0
}